ARM GAS  C:\Users\UNIPRO~1\AppData\Local\Temp\ccnzvpXF.s 			page 1


   1              		.syntax unified
   2              		.cpu cortex-m3
   3              		.fpu softvfp
   4              		.eabi_attribute 20, 1
   5              		.eabi_attribute 21, 1
   6              		.eabi_attribute 23, 3
   7              		.eabi_attribute 24, 1
   8              		.eabi_attribute 25, 1
   9              		.eabi_attribute 26, 1
  10              		.eabi_attribute 30, 1
  11              		.eabi_attribute 34, 1
  12              		.eabi_attribute 18, 4
  13              		.thumb
  14              		.syntax unified
  15              		.file	"main.c"
  16              		.text
  17              	.Ltext0:
  18              		.cfi_sections	.debug_frame
  19              		.section	.text.max,"ax",%progbits
  20              		.align	2
  21              		.global	max
  22              		.thumb
  23              		.thumb_func
  24              		.type	max, %function
  25              	max:
  26              	.LFB64:
  27              		.file 1 "main.c"
   1:main.c        **** /* ========================================
   2:main.c        ****  *
   3:main.c        ****  * Copyright YOUR COMPANY, THE YEAR
   4:main.c        ****  * All Rights Reserved
   5:main.c        ****  * UNPUBLISHED, LICENSED SOFTWARE.
   6:main.c        ****  *
   7:main.c        ****  * CONFIDENTIAL AND PROPRIETARY INFORMATION
   8:main.c        ****  * WHICH IS THE PROPERTY OF your company.
   9:main.c        ****  *
  10:main.c        ****  * ========================================
  11:main.c        **** */
  12:main.c        **** #include "project.h"
  13:main.c        **** #include "stdio.h"
  14:main.c        **** 
  15:main.c        **** #define TRANSMIT_BUFFER_SIZE 32
  16:main.c        **** #define NUMBER_OF_SENSORS 6
  17:main.c        **** #define NUMBER_OF_CAN_PARAM 3
  18:main.c        **** 
  19:main.c        **** uint16 TX_DATA[NUMBER_OF_CAN_PARAM];
  20:main.c        **** //uint32 output;
  21:main.c        **** 
  22:main.c        **** uint16 max(uint16 arr[], int n)
  23:main.c        **** {
  28              		.loc 1 23 0
  29              		.cfi_startproc
  30              		@ args = 0, pretend = 0, frame = 0
  31              		@ frame_needed = 0, uses_anonymous_args = 0
  32              		@ link register save eliminated.
  33              	.LVL0:
  34 0000 10B4     		push	{r4}
ARM GAS  C:\Users\UNIPRO~1\AppData\Local\Temp\ccnzvpXF.s 			page 2


  35              		.cfi_def_cfa_offset 4
  36              		.cfi_offset 4, -4
  37 0002 0446     		mov	r4, r0
  38              	.LVL1:
  24:main.c        ****     int i;
  25:main.c        ****     int max = 0;
  39              		.loc 1 25 0
  40 0004 0020     		movs	r0, #0
  41              	.LVL2:
  26:main.c        ****     
  27:main.c        ****     for (i = 0; i < n; i++)
  42              		.loc 1 27 0
  43 0006 0346     		mov	r3, r0
  44 0008 05E0     		b	.L2
  45              	.LVL3:
  46              	.L4:
  28:main.c        ****         if (arr[i] > max)
  47              		.loc 1 28 0
  48 000a 34F81320 		ldrh	r2, [r4, r3, lsl #1]
  49 000e 9042     		cmp	r0, r2
  50 0010 00DA     		bge	.L3
  29:main.c        ****         max = arr[i];
  51              		.loc 1 29 0
  52 0012 1046     		mov	r0, r2
  53              	.LVL4:
  54              	.L3:
  27:main.c        ****         if (arr[i] > max)
  55              		.loc 1 27 0 discriminator 2
  56 0014 0133     		adds	r3, r3, #1
  57              	.LVL5:
  58              	.L2:
  27:main.c        ****         if (arr[i] > max)
  59              		.loc 1 27 0 is_stmt 0 discriminator 1
  60 0016 8B42     		cmp	r3, r1
  61 0018 F7DB     		blt	.L4
  30:main.c        ****         
  31:main.c        ****      return max;
  32:main.c        **** }
  62              		.loc 1 32 0 is_stmt 1
  63 001a 10BC     		pop	{r4}
  64              		.cfi_restore 4
  65              		.cfi_def_cfa_offset 0
  66              	.LVL6:
  67 001c 7047     		bx	lr
  68              		.cfi_endproc
  69              	.LFE64:
  70              		.size	max, .-max
  71 001e 00BF     		.section	.text.min,"ax",%progbits
  72              		.align	2
  73              		.global	min
  74              		.thumb
  75              		.thumb_func
  76              		.type	min, %function
  77              	min:
  78              	.LFB65:
  33:main.c        **** 
  34:main.c        **** uint16 min(uint16 arr[], int n, int max)
ARM GAS  C:\Users\UNIPRO~1\AppData\Local\Temp\ccnzvpXF.s 			page 3


  35:main.c        **** {
  79              		.loc 1 35 0
  80              		.cfi_startproc
  81              		@ args = 0, pretend = 0, frame = 0
  82              		@ frame_needed = 0, uses_anonymous_args = 0
  83              		@ link register save eliminated.
  84              	.LVL7:
  85 0000 10B4     		push	{r4}
  86              		.cfi_def_cfa_offset 4
  87              		.cfi_offset 4, -4
  88              	.LVL8:
  36:main.c        ****     int i;
  37:main.c        ****     int min = max; //Initialising
  38:main.c        ****     
  39:main.c        ****     for (i = 0; i < n; i++){
  89              		.loc 1 39 0
  90 0002 0023     		movs	r3, #0
  91 0004 06E0     		b	.L8
  92              	.LVL9:
  93              	.L10:
  40:main.c        ****         if ((arr[i] < min) && (arr[i] != 0)){
  94              		.loc 1 40 0
  95 0006 30F81340 		ldrh	r4, [r0, r3, lsl #1]
  96 000a A242     		cmp	r2, r4
  97 000c 01DD     		ble	.L9
  98              		.loc 1 40 0 is_stmt 0 discriminator 1
  99 000e 04B1     		cbz	r4, .L9
  41:main.c        ****             min = arr[i];}
 100              		.loc 1 41 0 is_stmt 1
 101 0010 2246     		mov	r2, r4
 102              	.LVL10:
 103              	.L9:
  39:main.c        ****         if ((arr[i] < min) && (arr[i] != 0)){
 104              		.loc 1 39 0 discriminator 2
 105 0012 0133     		adds	r3, r3, #1
 106              	.LVL11:
 107              	.L8:
  39:main.c        ****         if ((arr[i] < min) && (arr[i] != 0)){
 108              		.loc 1 39 0 is_stmt 0 discriminator 1
 109 0014 8B42     		cmp	r3, r1
 110 0016 F6DB     		blt	.L10
  42:main.c        ****     }
  43:main.c        ****         
  44:main.c        ****      return min;
  45:main.c        **** }
 111              		.loc 1 45 0 is_stmt 1
 112 0018 90B2     		uxth	r0, r2
 113              	.LVL12:
 114 001a 10BC     		pop	{r4}
 115              		.cfi_restore 4
 116              		.cfi_def_cfa_offset 0
 117 001c 7047     		bx	lr
 118              		.cfi_endproc
 119              	.LFE65:
 120              		.size	min, .-min
 121 001e 00BF     		.section	.text.avg,"ax",%progbits
 122              		.align	2
ARM GAS  C:\Users\UNIPRO~1\AppData\Local\Temp\ccnzvpXF.s 			page 4


 123              		.global	avg
 124              		.thumb
 125              		.thumb_func
 126              		.type	avg, %function
 127              	avg:
 128              	.LFB66:
  46:main.c        **** 
  47:main.c        **** uint16 avg(uint16 arr[], int n, int max)
  48:main.c        **** {
 129              		.loc 1 48 0
 130              		.cfi_startproc
 131              		@ args = 0, pretend = 0, frame = 0
 132              		@ frame_needed = 0, uses_anonymous_args = 0
 133              		@ link register save eliminated.
 134              	.LVL13:
 135 0000 70B4     		push	{r4, r5, r6}
 136              		.cfi_def_cfa_offset 12
 137              		.cfi_offset 4, -12
 138              		.cfi_offset 5, -8
 139              		.cfi_offset 6, -4
 140              	.LVL14:
  49:main.c        ****     int i;
  50:main.c        ****     int sum = max; //Initialising
 141              		.loc 1 50 0
 142 0002 1546     		mov	r5, r2
  51:main.c        ****     int conn_sensors = 0;
 143              		.loc 1 51 0
 144 0004 0026     		movs	r6, #0
  52:main.c        ****     
  53:main.c        ****     for (i = 0; i < n; i++){
 145              		.loc 1 53 0
 146 0006 3346     		mov	r3, r6
 147 0008 05E0     		b	.L14
 148              	.LVL15:
 149              	.L16:
  54:main.c        ****         if (arr[i] != 0){
 150              		.loc 1 54 0
 151 000a 30F81340 		ldrh	r4, [r0, r3, lsl #1]
 152 000e 0CB1     		cbz	r4, .L15
  55:main.c        ****             sum = sum + arr[i];
 153              		.loc 1 55 0
 154 0010 2544     		add	r5, r5, r4
 155              	.LVL16:
  56:main.c        ****             conn_sensors = conn_sensors + 1;
 156              		.loc 1 56 0
 157 0012 0136     		adds	r6, r6, #1
 158              	.LVL17:
 159              	.L15:
  53:main.c        ****         if (arr[i] != 0){
 160              		.loc 1 53 0 discriminator 2
 161 0014 0133     		adds	r3, r3, #1
 162              	.LVL18:
 163              	.L14:
  53:main.c        ****         if (arr[i] != 0){
 164              		.loc 1 53 0 is_stmt 0 discriminator 1
 165 0016 8B42     		cmp	r3, r1
 166 0018 F7DB     		blt	.L16
ARM GAS  C:\Users\UNIPRO~1\AppData\Local\Temp\ccnzvpXF.s 			page 5


  57:main.c        ****         }
  58:main.c        ****     }
  59:main.c        ****      return ((sum-max)/conn_sensors);
 167              		.loc 1 59 0 is_stmt 1
 168 001a AD1A     		subs	r5, r5, r2
 169              	.LVL19:
 170 001c 95FBF6F0 		sdiv	r0, r5, r6
 171              	.LVL20:
  60:main.c        **** }
 172              		.loc 1 60 0
 173 0020 80B2     		uxth	r0, r0
 174 0022 70BC     		pop	{r4, r5, r6}
 175              		.cfi_restore 6
 176              		.cfi_restore 5
 177              		.cfi_restore 4
 178              		.cfi_def_cfa_offset 0
 179              	.LVL21:
 180 0024 7047     		bx	lr
 181              		.cfi_endproc
 182              	.LFE66:
 183              		.size	avg, .-avg
 184 0026 00BF     		.section	.text.main,"ax",%progbits
 185              		.align	2
 186              		.global	main
 187              		.thumb
 188              		.thumb_func
 189              		.type	main, %function
 190              	main:
 191              	.LFB67:
  61:main.c        **** 
  62:main.c        **** int main(void)
  63:main.c        **** {
 192              		.loc 1 63 0
 193              		.cfi_startproc
 194              		@ args = 0, pretend = 0, frame = 48
 195              		@ frame_needed = 0, uses_anonymous_args = 0
 196 0000 30B5     		push	{r4, r5, lr}
 197              		.cfi_def_cfa_offset 12
 198              		.cfi_offset 4, -12
 199              		.cfi_offset 5, -8
 200              		.cfi_offset 14, -4
 201 0002 8DB0     		sub	sp, sp, #52
 202              		.cfi_def_cfa_offset 64
  64:main.c        ****     CyGlobalIntEnable; /* Enable global interrupts. */
 203              		.loc 1 64 0
 204              		.syntax unified
 205              	@ 64 "main.c" 1
 206 0004 62B6     		CPSIE   i
 207              	@ 0 "" 2
  65:main.c        ****     char TransmitBuffer[TRANSMIT_BUFFER_SIZE];
  66:main.c        ****     /* Place your initialization/startup code here (e.g. MyInst_Start()) */
  67:main.c        ****     UART_1_Start();
 208              		.loc 1 67 0
 209              		.thumb
 210              		.syntax unified
 211 0006 FFF7FEFF 		bl	UART_1_Start
 212              	.LVL22:
ARM GAS  C:\Users\UNIPRO~1\AppData\Local\Temp\ccnzvpXF.s 			page 6


  68:main.c        ****     ADC_DelSig_1_Start();
 213              		.loc 1 68 0
 214 000a FFF7FEFF 		bl	ADC_DelSig_1_Start
 215              	.LVL23:
  69:main.c        ****     AMux_1_Start();
 216              		.loc 1 69 0
 217 000e FFF7FEFF 		bl	AMux_1_Start
 218              	.LVL24:
  70:main.c        ****     CAN_1_Start();
 219              		.loc 1 70 0
 220 0012 FFF7FEFF 		bl	CAN_1_Start
 221              	.LVL25:
  71:main.c        ****     
  72:main.c        ****     ADC_DelSig_1_StartConvert();
 222              		.loc 1 72 0
 223 0016 FFF7FEFF 		bl	ADC_DelSig_1_StartConvert
 224              	.LVL26:
  73:main.c        ****     UART_1_PutString("COM Port Open");
 225              		.loc 1 73 0
 226 001a 3848     		ldr	r0, .L25
 227 001c FFF7FEFF 		bl	UART_1_PutString
 228              	.LVL27:
 229              	.L23:
 230              	.LBB2:
  74:main.c        ****     
  75:main.c        ****     for(;;)
  76:main.c        ****     {   
  77:main.c        ****         /* Place your application code here. */
  78:main.c        ****         uint16 datapin[NUMBER_OF_SENSORS-1];
  79:main.c        ****         int i;
  80:main.c        ****         for (i = 0; i < NUMBER_OF_SENSORS; i++){
 231              		.loc 1 80 0
 232 0020 0024     		movs	r4, #0
 233 0022 2DE0     		b	.L19
 234              	.LVL28:
 235              	.L22:
  81:main.c        ****         AMux_1_Select(i);
 236              		.loc 1 81 0
 237 0024 E0B2     		uxtb	r0, r4
 238 0026 FFF7FEFF 		bl	AMux_1_FastSelect
 239              	.LVL29:
  82:main.c        ****         if(ADC_DelSig_1_IsEndConversion(ADC_DelSig_1_RETURN_STATUS))
 240              		.loc 1 82 0
 241 002a 0120     		movs	r0, #1
 242 002c FFF7FEFF 		bl	ADC_DelSig_1_IsEndConversion
 243              	.LVL30:
 244 0030 10B3     		cbz	r0, .L20
  83:main.c        ****         {
  84:main.c        ****         //ADC_DelSig_1_SetGain(51);
  85:main.c        ****             datapin[i]=  ADC_DelSig_1_CountsTo_mVolts(ADC_DelSig_1_GetResult16());
 245              		.loc 1 85 0
 246 0032 FFF7FEFF 		bl	ADC_DelSig_1_GetResult16
 247              	.LVL31:
 248 0036 FFF7FEFF 		bl	ADC_DelSig_1_CountsTo_mVolts
 249              	.LVL32:
 250 003a 83B2     		uxth	r3, r0
 251 003c 0CAA     		add	r2, sp, #48
ARM GAS  C:\Users\UNIPRO~1\AppData\Local\Temp\ccnzvpXF.s 			page 7


 252 003e 02EB4402 		add	r2, r2, r4, lsl #1
 253 0042 22F82C3C 		strh	r3, [r2, #-44]	@ movhi
  86:main.c        ****             if (datapin[i] < 100){ //Some tolerance for Grounded Voltage (100mV) for 'Disconnected 
 254              		.loc 1 86 0
 255 0046 632B     		cmp	r3, #99
 256 0048 0ED8     		bhi	.L21
  87:main.c        ****                 datapin[i] = 0;
 257              		.loc 1 87 0
 258 004a 0022     		movs	r2, #0
 259 004c 0CAB     		add	r3, sp, #48
 260 004e 03EB4403 		add	r3, r3, r4, lsl #1
 261 0052 23F82C2C 		strh	r2, [r3, #-44]	@ movhi
  88:main.c        ****                 sprintf(TransmitBuffer, "Pin %d to GND\r\n", i);
 262              		.loc 1 88 0
 263 0056 2246     		mov	r2, r4
 264 0058 2949     		ldr	r1, .L25+4
 265 005a 04A8     		add	r0, sp, #16
 266 005c FFF7FEFF 		bl	sprintf
 267              	.LVL33:
  89:main.c        ****                 UART_1_PutString(TransmitBuffer);
 268              		.loc 1 89 0
 269 0060 04A8     		add	r0, sp, #16
 270 0062 FFF7FEFF 		bl	UART_1_PutString
 271              	.LVL34:
 272 0066 07E0     		b	.L20
 273              	.L21:
  90:main.c        ****             }
  91:main.c        ****             else{   
  92:main.c        ****         //output = ADC_DelSig_1_CountsTo_mVolts(ADC_DelSig_1_GetResult8());
  93:main.c        ****             sprintf(TransmitBuffer, "Pin %d: %d mV\r\n", i, datapin[i]);
 274              		.loc 1 93 0
 275 0068 2246     		mov	r2, r4
 276 006a 2649     		ldr	r1, .L25+8
 277 006c 04A8     		add	r0, sp, #16
 278 006e FFF7FEFF 		bl	sprintf
 279              	.LVL35:
  94:main.c        ****             UART_1_PutString(TransmitBuffer);
 280              		.loc 1 94 0
 281 0072 04A8     		add	r0, sp, #16
 282 0074 FFF7FEFF 		bl	UART_1_PutString
 283              	.LVL36:
 284              	.L20:
  95:main.c        ****             }
  96:main.c        ****         }
  97:main.c        ****         
  98:main.c        ****         CyDelay(100);
 285              		.loc 1 98 0 discriminator 2
 286 0078 6420     		movs	r0, #100
 287 007a FFF7FEFF 		bl	CyDelay
 288              	.LVL37:
  80:main.c        ****         AMux_1_Select(i);
 289              		.loc 1 80 0 discriminator 2
 290 007e 0134     		adds	r4, r4, #1
 291              	.LVL38:
 292              	.L19:
  80:main.c        ****         AMux_1_Select(i);
 293              		.loc 1 80 0 is_stmt 0 discriminator 1
ARM GAS  C:\Users\UNIPRO~1\AppData\Local\Temp\ccnzvpXF.s 			page 8


 294 0080 052C     		cmp	r4, #5
 295 0082 CFDD     		ble	.L22
  99:main.c        ****         }
 100:main.c        ****         
 101:main.c        ****         TX_DATA[0] = max(datapin, NUMBER_OF_SENSORS);
 296              		.loc 1 101 0 is_stmt 1
 297 0084 0621     		movs	r1, #6
 298 0086 01A8     		add	r0, sp, #4
 299 0088 FFF7FEFF 		bl	max
 300              	.LVL39:
 301 008c 0546     		mov	r5, r0
 302 008e 1E4C     		ldr	r4, .L25+12
 303              	.LVL40:
 304 0090 2080     		strh	r0, [r4]	@ movhi
 102:main.c        ****         TX_DATA[1] = min(datapin, NUMBER_OF_SENSORS, TX_DATA[0]);
 305              		.loc 1 102 0
 306 0092 0246     		mov	r2, r0
 307 0094 0621     		movs	r1, #6
 308 0096 01A8     		add	r0, sp, #4
 309 0098 FFF7FEFF 		bl	min
 310              	.LVL41:
 311 009c 6080     		strh	r0, [r4, #2]	@ movhi
 103:main.c        ****         TX_DATA[2] = avg(datapin, NUMBER_OF_SENSORS, TX_DATA[0]);
 312              		.loc 1 103 0
 313 009e 2A46     		mov	r2, r5
 314 00a0 0621     		movs	r1, #6
 315 00a2 01A8     		add	r0, sp, #4
 316 00a4 FFF7FEFF 		bl	avg
 317              	.LVL42:
 318 00a8 A080     		strh	r0, [r4, #4]	@ movhi
 104:main.c        ****         //TX_DATA8[0] = (int)min(datapin, NUMBER_OF_SENSORS)*10;
 105:main.c        ****         //TX_DATA8[1] = (int)max(datapin, NUMBER_OF_SENSORS)*10;
 106:main.c        ****         //TX_DATA8[2] = (int)avg(datapin, NUMBER_OF_SENSORS)*10;
 107:main.c        ****         
 108:main.c        ****         sprintf(TransmitBuffer, "\nMax: %d mV\r\n", TX_DATA[0]);
 319              		.loc 1 108 0
 320 00aa 2A46     		mov	r2, r5
 321 00ac 1749     		ldr	r1, .L25+16
 322 00ae 04A8     		add	r0, sp, #16
 323 00b0 FFF7FEFF 		bl	sprintf
 324              	.LVL43:
 109:main.c        ****         UART_1_PutString(TransmitBuffer);
 325              		.loc 1 109 0
 326 00b4 04A8     		add	r0, sp, #16
 327 00b6 FFF7FEFF 		bl	UART_1_PutString
 328              	.LVL44:
 110:main.c        ****         CyDelay(100);
 329              		.loc 1 110 0
 330 00ba 6420     		movs	r0, #100
 331 00bc FFF7FEFF 		bl	CyDelay
 332              	.LVL45:
 111:main.c        ****         sprintf(TransmitBuffer, "Min: %d mV\r\n", TX_DATA[1]);
 333              		.loc 1 111 0
 334 00c0 6288     		ldrh	r2, [r4, #2]
 335 00c2 1349     		ldr	r1, .L25+20
 336 00c4 04A8     		add	r0, sp, #16
 337 00c6 FFF7FEFF 		bl	sprintf
ARM GAS  C:\Users\UNIPRO~1\AppData\Local\Temp\ccnzvpXF.s 			page 9


 338              	.LVL46:
 112:main.c        ****         UART_1_PutString(TransmitBuffer);
 339              		.loc 1 112 0
 340 00ca 04A8     		add	r0, sp, #16
 341 00cc FFF7FEFF 		bl	UART_1_PutString
 342              	.LVL47:
 113:main.c        ****         CyDelay(100);
 343              		.loc 1 113 0
 344 00d0 6420     		movs	r0, #100
 345 00d2 FFF7FEFF 		bl	CyDelay
 346              	.LVL48:
 114:main.c        ****         sprintf(TransmitBuffer, "Avg: %d mV\r\n\n", TX_DATA[2]);
 347              		.loc 1 114 0
 348 00d6 A288     		ldrh	r2, [r4, #4]
 349 00d8 0E49     		ldr	r1, .L25+24
 350 00da 04A8     		add	r0, sp, #16
 351 00dc FFF7FEFF 		bl	sprintf
 352              	.LVL49:
 115:main.c        ****         UART_1_PutString(TransmitBuffer);
 353              		.loc 1 115 0
 354 00e0 04A8     		add	r0, sp, #16
 355 00e2 FFF7FEFF 		bl	UART_1_PutString
 356              	.LVL50:
 116:main.c        ****         CyDelay(100);
 357              		.loc 1 116 0
 358 00e6 6420     		movs	r0, #100
 359 00e8 FFF7FEFF 		bl	CyDelay
 360              	.LVL51:
 117:main.c        ****         
 118:main.c        ****         CAN_1_SendMsg0();
 361              		.loc 1 118 0
 362 00ec FFF7FEFF 		bl	CAN_1_SendMsg0
 363              	.LVL52:
 119:main.c        ****         CyDelay(1000);
 364              		.loc 1 119 0
 365 00f0 4FF47A70 		mov	r0, #1000
 366 00f4 FFF7FEFF 		bl	CyDelay
 367              	.LVL53:
 368              	.LBE2:
 120:main.c        ****     }
 369              		.loc 1 120 0
 370 00f8 92E7     		b	.L23
 371              	.L26:
 372 00fa 00BF     		.align	2
 373              	.L25:
 374 00fc 00000000 		.word	.LC0
 375 0100 10000000 		.word	.LC1
 376 0104 20000000 		.word	.LC2
 377 0108 00000000 		.word	TX_DATA
 378 010c 30000000 		.word	.LC3
 379 0110 40000000 		.word	.LC4
 380 0114 50000000 		.word	.LC5
 381              		.cfi_endproc
 382              	.LFE67:
 383              		.size	main, .-main
 384              		.comm	TX_DATA,6,4
 385              		.section	.rodata.str1.4,"aMS",%progbits,1
ARM GAS  C:\Users\UNIPRO~1\AppData\Local\Temp\ccnzvpXF.s 			page 10


 386              		.align	2
 387              	.LC0:
 388 0000 434F4D20 		.ascii	"COM Port Open\000"
 388      506F7274 
 388      204F7065 
 388      6E00
 389 000e 0000     		.space	2
 390              	.LC1:
 391 0010 50696E20 		.ascii	"Pin %d to GND\015\012\000"
 391      25642074 
 391      6F20474E 
 391      440D0A00 
 392              	.LC2:
 393 0020 50696E20 		.ascii	"Pin %d: %d mV\015\012\000"
 393      25643A20 
 393      2564206D 
 393      560D0A00 
 394              	.LC3:
 395 0030 0A4D6178 		.ascii	"\012Max: %d mV\015\012\000"
 395      3A202564 
 395      206D560D 
 395      0A00
 396 003e 0000     		.space	2
 397              	.LC4:
 398 0040 4D696E3A 		.ascii	"Min: %d mV\015\012\000"
 398      20256420 
 398      6D560D0A 
 398      00
 399 004d 000000   		.space	3
 400              	.LC5:
 401 0050 4176673A 		.ascii	"Avg: %d mV\015\012\012\000"
 401      20256420 
 401      6D560D0A 
 401      0A00
 402              		.text
 403              	.Letext0:
 404              		.file 2 "c:\\program files (x86)\\cypress\\psoc creator\\4.4\\psoc creator\\import\\gnu\\arm\\5.4.
 405              		.file 3 "c:\\program files (x86)\\cypress\\psoc creator\\4.4\\psoc creator\\import\\gnu\\arm\\5.4.
 406              		.file 4 "Generated_Source\\PSoC5/cytypes.h"
 407              		.file 5 "Generated_Source\\PSoC5/core_cm3.h"
 408              		.file 6 "Generated_Source\\PSoC5/AMux_1.h"
 409              		.file 7 "Generated_Source\\PSoC5/ADC_DelSig_1.h"
 410              		.file 8 "c:\\program files (x86)\\cypress\\psoc creator\\4.4\\psoc creator\\import\\gnu\\arm\\5.4.
 411              		.file 9 "Generated_Source\\PSoC5/UART_1.h"
 412              		.file 10 "Generated_Source\\PSoC5/CyLib.h"
 413              		.file 11 "Generated_Source\\PSoC5/CAN_1.h"